; ModuleID = '7/1130.c'
source_filename = "7/1130.c"
target datalayout = "e-m:e-p270:32:32-p271:32:32-p272:64:64-i64:64-f80:128-n8:16:32:64-S128"
target triple = "x86_64-pc-linux-gnu"

@.str = private unnamed_addr constant [9 x i8] c"%s %s %s\00", align 1
@.str.1 = private unnamed_addr constant [3 x i8] c"%s\00", align 1

; Function Attrs: noinline nounwind uwtable
define dso_local i32 @main(i32 %0, i8** %1) #0 {
  %3 = alloca i32, align 4
  %4 = alloca i32, align 4
  %5 = alloca i8**, align 8
  %6 = alloca [256 x i8], align 16
  %7 = alloca [256 x i8], align 16
  %8 = alloca [256 x i8], align 16
  %9 = alloca i32, align 4
  %10 = alloca i32, align 4
  %11 = alloca i32, align 4
  %12 = alloca i32, align 4
  %13 = alloca i32, align 4
  %14 = alloca i32, align 4
  %15 = alloca i32, align 4
  store i32 0, i32* %3, align 4
  store i32 %0, i32* %4, align 4
  store i8** %1, i8*** %5, align 8
  store i32 300, i32* %14, align 4
  %16 = getelementptr inbounds [256 x i8], [256 x i8]* %6, i64 0, i64 0
  %17 = getelementptr inbounds [256 x i8], [256 x i8]* %7, i64 0, i64 0
  %18 = getelementptr inbounds [256 x i8], [256 x i8]* %8, i64 0, i64 0
  %19 = call i32 (i8*, ...) @__isoc99_scanf(i8* getelementptr inbounds ([9 x i8], [9 x i8]* @.str, i64 0, i64 0), i8* %16, i8* %17, i8* %18)
  %20 = getelementptr inbounds [256 x i8], [256 x i8]* %6, i64 0, i64 0
  %21 = call i64 @strlen(i8* %20) #3
  %22 = trunc i64 %21 to i32
  store i32 %22, i32* %9, align 4
  %23 = getelementptr inbounds [256 x i8], [256 x i8]* %7, i64 0, i64 0
  %24 = call i64 @strlen(i8* %23) #3
  %25 = trunc i64 %24 to i32
  store i32 %25, i32* %12, align 4
  %26 = getelementptr inbounds [256 x i8], [256 x i8]* %8, i64 0, i64 0
  %27 = call i64 @strlen(i8* %26) #3
  %28 = trunc i64 %27 to i32
  store i32 %28, i32* %13, align 4
  store i32 0, i32* %11, align 4
  br label %29

29:                                               ; preds = %90, %2
  %30 = load i32, i32* %11, align 4
  %31 = load i32, i32* %9, align 4
  %32 = icmp slt i32 %30, %31
  br i1 %32, label %33, label %93

33:                                               ; preds = %29
  %34 = getelementptr inbounds [256 x i8], [256 x i8]* %7, i64 0, i64 0
  %35 = load i8, i8* %34, align 16
  %36 = sext i8 %35 to i32
  %37 = load i32, i32* %11, align 4
  %38 = sext i32 %37 to i64
  %39 = getelementptr inbounds [256 x i8], [256 x i8]* %6, i64 0, i64 %38
  %40 = load i8, i8* %39, align 1
  %41 = sext i8 %40 to i32
  %42 = icmp eq i32 %36, %41
  br i1 %42, label %43, label %89

43:                                               ; preds = %33
  store i32 0, i32* %10, align 4
  br label %44

44:                                               ; preds = %85, %43
  %45 = load i32, i32* %10, align 4
  %46 = load i32, i32* %12, align 4
  %47 = icmp slt i32 %45, %46
  br i1 %47, label %48, label %88

48:                                               ; preds = %44
  %49 = load i32, i32* %10, align 4
  %50 = sext i32 %49 to i64
  %51 = getelementptr inbounds [256 x i8], [256 x i8]* %7, i64 0, i64 %50
  %52 = load i8, i8* %51, align 1
  %53 = sext i8 %52 to i32
  %54 = load i32, i32* %11, align 4
  %55 = load i32, i32* %10, align 4
  %56 = add nsw i32 %54, %55
  %57 = sext i32 %56 to i64
  %58 = getelementptr inbounds [256 x i8], [256 x i8]* %6, i64 0, i64 %57
  %59 = load i8, i8* %58, align 1
  %60 = sext i8 %59 to i32
  %61 = icmp ne i32 %53, %60
  br i1 %61, label %62, label %63

62:                                               ; preds = %48
  br label %88

63:                                               ; preds = %48
  %64 = load i32, i32* %10, align 4
  %65 = load i32, i32* %12, align 4
  %66 = sub nsw i32 %65, 1
  %67 = icmp eq i32 %64, %66
  br i1 %67, label %68, label %84

68:                                               ; preds = %63
  %69 = load i32, i32* %10, align 4
  %70 = sext i32 %69 to i64
  %71 = getelementptr inbounds [256 x i8], [256 x i8]* %7, i64 0, i64 %70
  %72 = load i8, i8* %71, align 1
  %73 = sext i8 %72 to i32
  %74 = load i32, i32* %11, align 4
  %75 = load i32, i32* %10, align 4
  %76 = add nsw i32 %74, %75
  %77 = sext i32 %76 to i64
  %78 = getelementptr inbounds [256 x i8], [256 x i8]* %6, i64 0, i64 %77
  %79 = load i8, i8* %78, align 1
  %80 = sext i8 %79 to i32
  %81 = icmp eq i32 %73, %80
  br i1 %81, label %82, label %84

82:                                               ; preds = %68
  %83 = load i32, i32* %11, align 4
  store i32 %83, i32* %14, align 4
  store i32 100, i32* %11, align 4
  br label %88

84:                                               ; preds = %68, %63
  br label %85

85:                                               ; preds = %84
  %86 = load i32, i32* %10, align 4
  %87 = add nsw i32 %86, 1
  store i32 %87, i32* %10, align 4
  br label %44

88:                                               ; preds = %82, %62, %44
  br label %89

89:                                               ; preds = %88, %33
  br label %90

90:                                               ; preds = %89
  %91 = load i32, i32* %11, align 4
  %92 = add nsw i32 %91, 1
  store i32 %92, i32* %11, align 4
  br label %29

93:                                               ; preds = %29
  %94 = load i32, i32* %14, align 4
  %95 = icmp ne i32 %94, 300
  br i1 %95, label %96, label %119

96:                                               ; preds = %93
  %97 = load i32, i32* %14, align 4
  store i32 %97, i32* %15, align 4
  br label %98

98:                                               ; preds = %115, %96
  %99 = load i32, i32* %15, align 4
  %100 = load i32, i32* %14, align 4
  %101 = load i32, i32* %12, align 4
  %102 = add nsw i32 %100, %101
  %103 = icmp slt i32 %99, %102
  br i1 %103, label %104, label %118

104:                                              ; preds = %98
  %105 = load i32, i32* %15, align 4
  %106 = add nsw i32 0, %105
  %107 = load i32, i32* %14, align 4
  %108 = sub nsw i32 %106, %107
  %109 = sext i32 %108 to i64
  %110 = getelementptr inbounds [256 x i8], [256 x i8]* %8, i64 0, i64 %109
  %111 = load i8, i8* %110, align 1
  %112 = load i32, i32* %15, align 4
  %113 = sext i32 %112 to i64
  %114 = getelementptr inbounds [256 x i8], [256 x i8]* %6, i64 0, i64 %113
  store i8 %111, i8* %114, align 1
  br label %115

115:                                              ; preds = %104
  %116 = load i32, i32* %15, align 4
  %117 = add nsw i32 %116, 1
  store i32 %117, i32* %15, align 4
  br label %98

118:                                              ; preds = %98
  br label %119

119:                                              ; preds = %118, %93
  %120 = getelementptr inbounds [256 x i8], [256 x i8]* %6, i64 0, i64 0
  %121 = call i32 (i8*, ...) @printf(i8* getelementptr inbounds ([3 x i8], [3 x i8]* @.str.1, i64 0, i64 0), i8* %120)
  ret i32 0
}

declare dso_local i32 @__isoc99_scanf(i8*, ...) #1

; Function Attrs: nounwind readonly
declare dso_local i64 @strlen(i8*) #2

declare dso_local i32 @printf(i8*, ...) #1


!llvm.module.flags = !{!0}
!llvm.ident = !{!1}

!0 = !{i32 1, !"wchar_size", i32 4}
!1 = !{!"clang version 10.0.0-4ubuntu1 "}
